target datalayout = "e-m:e-p270:32:32-p271:32:32-p272:64:64-i64:64-i128:128-f80:128-n8:16:32:64-S128"
target triple = "x86_64-pc-linux-gnu"

@SysCache = internal global [85 x ptr] zeroinitializer, align 16
@.str.1 = private unnamed_addr constant [11 x i8] c"syscache.c\00", align 1
@.str.2 = private unnamed_addr constant [21 x i8] c"invalid cache ID: %d\00", align 1
@__func__.GetSysCacheHashValue = private unnamed_addr constant [21 x i8] c"GetSysCacheHashValue\00", align 1

; Function Attrs: nounwind uwtable
define dso_local i32 @GetSysCacheHashValue(i32 noundef %0, i64 noundef %1, i64 noundef %2, i64 noundef %3, i64 noundef %4) #0 {
  %6 = alloca i32, align 4
  %7 = alloca i64, align 8
  %8 = alloca i64, align 8
  %9 = alloca i64, align 8
  %10 = alloca i64, align 8
  store i32 %0, ptr %6, align 4
  store i64 %1, ptr %7, align 8
  store i64 %2, ptr %8, align 8
  store i64 %3, ptr %9, align 8
  store i64 %4, ptr %10, align 8
  %11 = load i32, ptr %6, align 4
  %12 = icmp slt i32 %11, 0
  br i1 %12, label %22, label %13

13:                                               ; preds = %5
  %14 = load i32, ptr %6, align 4
  %15 = icmp sge i32 %14, 85
  br i1 %15, label %22, label %16

16:                                               ; preds = %13
  %17 = load i32, ptr %6, align 4
  %18 = sext i32 %17 to i64
  %19 = getelementptr inbounds [85 x ptr], ptr @SysCache, i64 0, i64 %18
  %20 = load ptr, ptr %19, align 8
  %21 = icmp ne ptr %20, null
  br i1 %21, label %33, label %22

22:                                               ; preds = %16, %13, %5
  br label %23

23:                                               ; preds = %22
  br i1 true, label %24, label %26

24:                                               ; preds = %23
  %25 = call zeroext i1 @errstart_cold(i32 noundef 21, ptr noundef null) #7
  br i1 %25, label %28, label %31

26:                                               ; preds = %23
  %27 = call zeroext i1 @errstart(i32 noundef 21, ptr noundef null)
  br i1 %27, label %28, label %31

28:                                               ; preds = %26, %24
  %29 = load i32, ptr %6, align 4
  %30 = call i32 (ptr, ...) @errmsg_internal(ptr noundef @.str.2, i32 noundef %29)
  call void @errfinish(ptr noundef @.str.1, i32 noundef 669, ptr noundef @__func__.GetSysCacheHashValue)
  br label %31

31:                                               ; preds = %28, %26, %24
  unreachable

32:                                               ; No predecessors!
  br label %33

33:                                               ; preds = %32, %16
  %34 = load i32, ptr %6, align 4
  %35 = sext i32 %34 to i64
  %36 = getelementptr inbounds [85 x ptr], ptr @SysCache, i64 0, i64 %35
  %37 = load ptr, ptr %36, align 8
  %38 = load i64, ptr %7, align 8
  %39 = load i64, ptr %8, align 8
  %40 = load i64, ptr %9, align 8
  %41 = load i64, ptr %10, align 8
  %42 = call i32 @GetCatCacheHashValue(ptr noundef %37, i64 noundef %38, i64 noundef %39, i64 noundef %40, i64 noundef %41)
  ret i32 %42
}